target datalayout = "e-m:e-p270:32:32-p271:32:32-p272:64:64-i64:64-i128:128-f80:128-n8:16:32:64-S128"
target triple = "x86_64-pc-linux-gnu"

%struct.bz_stream = type { ptr, i32, i32, i32, ptr, i32, i32, i32, ptr, ptr, ptr, ptr }
%struct.DState = type { ptr, i32, i8, i32, i8, i32, i32, i32, i32, i32, i8, i32, i32, i32, i32, i32, [256 x i32], i32, [257 x i32], [257 x i32], ptr, ptr, ptr, i32, i32, i32, i32, i32, [256 x i8], [16 x i8], [256 x i8], [4096 x i8], [16 x i32], [18002 x i8], [18002 x i8], [6 x [258 x i8]], [6 x [258 x i32]], [6 x [258 x i32]], [6 x [258 x i32]], [6 x i32], i32, i32, i32, i32, i32, i32, i32, i32, i32, i32, i32, i32, i32, i32, i32, i32, i32, i32, i32, i32, i32, ptr, ptr, ptr }
%struct.bzFile = type { ptr, [5000 x i8], i32, i8, %struct.bz_stream, i32, i8 }

@stdin = external global ptr, align 8
@stdout = external global ptr, align 8

; Function Attrs: nounwind uwtable
define i32 @BZ2_bzDecompressEnd(ptr noundef %0) #0 {
  %2 = alloca i32, align 4
  %3 = alloca ptr, align 8
  %4 = alloca ptr, align 8
  store ptr %0, ptr %3, align 8
  %5 = load ptr, ptr %3, align 8
  %6 = icmp eq ptr %5, null
  br i1 %6, label %7, label %8

7:                                                ; preds = %1
  store i32 -2, ptr %2, align 4
  br label %79

8:                                                ; preds = %1
  %9 = load ptr, ptr %3, align 8
  %10 = getelementptr inbounds %struct.bz_stream, ptr %9, i32 0, i32 8
  %11 = load ptr, ptr %10, align 8
  store ptr %11, ptr %4, align 8
  %12 = load ptr, ptr %4, align 8
  %13 = icmp eq ptr %12, null
  br i1 %13, label %14, label %15

14:                                               ; preds = %8
  store i32 -2, ptr %2, align 4
  br label %79

15:                                               ; preds = %8
  %16 = load ptr, ptr %4, align 8
  %17 = getelementptr inbounds %struct.DState, ptr %16, i32 0, i32 0
  %18 = load ptr, ptr %17, align 8
  %19 = load ptr, ptr %3, align 8
  %20 = icmp ne ptr %18, %19
  br i1 %20, label %21, label %22

21:                                               ; preds = %15
  store i32 -2, ptr %2, align 4
  br label %79

22:                                               ; preds = %15
  %23 = load ptr, ptr %4, align 8
  %24 = getelementptr inbounds %struct.DState, ptr %23, i32 0, i32 20
  %25 = load ptr, ptr %24, align 8
  %26 = icmp ne ptr %25, null
  br i1 %26, label %27, label %37

27:                                               ; preds = %22
  %28 = load ptr, ptr %3, align 8
  %29 = getelementptr inbounds %struct.bz_stream, ptr %28, i32 0, i32 10
  %30 = load ptr, ptr %29, align 8
  %31 = load ptr, ptr %3, align 8
  %32 = getelementptr inbounds %struct.bz_stream, ptr %31, i32 0, i32 11
  %33 = load ptr, ptr %32, align 8
  %34 = load ptr, ptr %4, align 8
  %35 = getelementptr inbounds %struct.DState, ptr %34, i32 0, i32 20
  %36 = load ptr, ptr %35, align 8
  call void %30(ptr noundef %33, ptr noundef %36)
  br label %37

37:                                               ; preds = %27, %22
  %38 = load ptr, ptr %4, align 8
  %39 = getelementptr inbounds %struct.DState, ptr %38, i32 0, i32 21
  %40 = load ptr, ptr %39, align 8
  %41 = icmp ne ptr %40, null
  br i1 %41, label %42, label %52

42:                                               ; preds = %37
  %43 = load ptr, ptr %3, align 8
  %44 = getelementptr inbounds %struct.bz_stream, ptr %43, i32 0, i32 10
  %45 = load ptr, ptr %44, align 8
  %46 = load ptr, ptr %3, align 8
  %47 = getelementptr inbounds %struct.bz_stream, ptr %46, i32 0, i32 11
  %48 = load ptr, ptr %47, align 8
  %49 = load ptr, ptr %4, align 8
  %50 = getelementptr inbounds %struct.DState, ptr %49, i32 0, i32 21
  %51 = load ptr, ptr %50, align 8
  call void %45(ptr noundef %48, ptr noundef %51)
  br label %52

52:                                               ; preds = %42, %37
  %53 = load ptr, ptr %4, align 8
  %54 = getelementptr inbounds %struct.DState, ptr %53, i32 0, i32 22
  %55 = load ptr, ptr %54, align 8
  %56 = icmp ne ptr %55, null
  br i1 %56, label %57, label %67

57:                                               ; preds = %52
  %58 = load ptr, ptr %3, align 8
  %59 = getelementptr inbounds %struct.bz_stream, ptr %58, i32 0, i32 10
  %60 = load ptr, ptr %59, align 8
  %61 = load ptr, ptr %3, align 8
  %62 = getelementptr inbounds %struct.bz_stream, ptr %61, i32 0, i32 11
  %63 = load ptr, ptr %62, align 8
  %64 = load ptr, ptr %4, align 8
  %65 = getelementptr inbounds %struct.DState, ptr %64, i32 0, i32 22
  %66 = load ptr, ptr %65, align 8
  call void %60(ptr noundef %63, ptr noundef %66)
  br label %67

67:                                               ; preds = %57, %52
  %68 = load ptr, ptr %3, align 8
  %69 = getelementptr inbounds %struct.bz_stream, ptr %68, i32 0, i32 10
  %70 = load ptr, ptr %69, align 8
  %71 = load ptr, ptr %3, align 8
  %72 = getelementptr inbounds %struct.bz_stream, ptr %71, i32 0, i32 11
  %73 = load ptr, ptr %72, align 8
  %74 = load ptr, ptr %3, align 8
  %75 = getelementptr inbounds %struct.bz_stream, ptr %74, i32 0, i32 8
  %76 = load ptr, ptr %75, align 8
  call void %70(ptr noundef %73, ptr noundef %76)
  %77 = load ptr, ptr %3, align 8
  %78 = getelementptr inbounds %struct.bz_stream, ptr %77, i32 0, i32 8
  store ptr null, ptr %78, align 8
  store i32 0, ptr %2, align 4
  br label %79

79:                                               ; preds = %67, %21, %14, %7
  %80 = load i32, ptr %2, align 4
  ret i32 %80
}

; Function Attrs: nounwind uwtable
define void @BZ2_bzReadClose(ptr noundef %0, ptr noundef %1) #0 {
  %3 = alloca ptr, align 8
  %4 = alloca ptr, align 8
  %5 = alloca ptr, align 8
  store ptr %0, ptr %3, align 8
  store ptr %1, ptr %4, align 8
  %6 = load ptr, ptr %4, align 8
  store ptr %6, ptr %5, align 8
  %7 = load ptr, ptr %3, align 8
  %8 = icmp ne ptr %7, null
  br i1 %8, label %9, label %11

9:                                                ; preds = %2
  %10 = load ptr, ptr %3, align 8
  store i32 0, ptr %10, align 4
  br label %11

11:                                               ; preds = %9, %2
  %12 = load ptr, ptr %5, align 8
  %13 = icmp ne ptr %12, null
  br i1 %13, label %14, label %17

14:                                               ; preds = %11
  %15 = load ptr, ptr %5, align 8
  %16 = getelementptr inbounds %struct.bzFile, ptr %15, i32 0, i32 5
  store i32 0, ptr %16, align 8
  br label %17

17:                                               ; preds = %14, %11
  %18 = load ptr, ptr %5, align 8
  %19 = icmp eq ptr %18, null
  br i1 %19, label %20, label %32

20:                                               ; preds = %17
  %21 = load ptr, ptr %3, align 8
  %22 = icmp ne ptr %21, null
  br i1 %22, label %23, label %25

23:                                               ; preds = %20
  %24 = load ptr, ptr %3, align 8
  store i32 0, ptr %24, align 4
  br label %25

25:                                               ; preds = %23, %20
  %26 = load ptr, ptr %5, align 8
  %27 = icmp ne ptr %26, null
  br i1 %27, label %28, label %31

28:                                               ; preds = %25
  %29 = load ptr, ptr %5, align 8
  %30 = getelementptr inbounds %struct.bzFile, ptr %29, i32 0, i32 5
  store i32 0, ptr %30, align 8
  br label %31

31:                                               ; preds = %28, %25
  br label %60

32:                                               ; preds = %17
  %33 = load ptr, ptr %5, align 8
  %34 = getelementptr inbounds %struct.bzFile, ptr %33, i32 0, i32 3
  %35 = load i8, ptr %34, align 4
  %36 = icmp ne i8 %35, 0
  br i1 %36, label %37, label %49

37:                                               ; preds = %32
  %38 = load ptr, ptr %3, align 8
  %39 = icmp ne ptr %38, null
  br i1 %39, label %40, label %42

40:                                               ; preds = %37
  %41 = load ptr, ptr %3, align 8
  store i32 -1, ptr %41, align 4
  br label %42

42:                                               ; preds = %40, %37
  %43 = load ptr, ptr %5, align 8
  %44 = icmp ne ptr %43, null
  br i1 %44, label %45, label %48

45:                                               ; preds = %42
  %46 = load ptr, ptr %5, align 8
  %47 = getelementptr inbounds %struct.bzFile, ptr %46, i32 0, i32 5
  store i32 -1, ptr %47, align 8
  br label %48

48:                                               ; preds = %45, %42
  br label %60

49:                                               ; preds = %32
  %50 = load ptr, ptr %5, align 8
  %51 = getelementptr inbounds %struct.bzFile, ptr %50, i32 0, i32 6
  %52 = load i8, ptr %51, align 4
  %53 = icmp ne i8 %52, 0
  br i1 %53, label %54, label %58

54:                                               ; preds = %49
  %55 = load ptr, ptr %5, align 8
  %56 = getelementptr inbounds %struct.bzFile, ptr %55, i32 0, i32 4
  %57 = call i32 @BZ2_bzDecompressEnd(ptr noundef %56)
  br label %58

58:                                               ; preds = %54, %49
  %59 = load ptr, ptr %5, align 8
  call void @free(ptr noundef %59) #8
  br label %60

60:                                               ; preds = %58, %48, %31
  ret void
}

; Function Attrs: nounwind uwtable
define void @BZ2_bzWriteClose(ptr noundef %0, ptr noundef %1, i32 noundef %2, ptr noundef %3, ptr noundef %4) #0 {
  %6 = alloca ptr, align 8
  %7 = alloca ptr, align 8
  %8 = alloca i32, align 4
  %9 = alloca ptr, align 8
  %10 = alloca ptr, align 8
  store ptr %0, ptr %6, align 8
  store ptr %1, ptr %7, align 8
  store i32 %2, ptr %8, align 4
  store ptr %3, ptr %9, align 8
  store ptr %4, ptr %10, align 8
  %11 = load ptr, ptr %6, align 8
  %12 = load ptr, ptr %7, align 8
  %13 = load i32, ptr %8, align 4
  %14 = load ptr, ptr %9, align 8
  %15 = load ptr, ptr %10, align 8
  call void @BZ2_bzWriteClose64(ptr noundef %11, ptr noundef %12, i32 noundef %13, ptr noundef %14, ptr noundef null, ptr noundef %15, ptr noundef null)
  ret void
}

; Function Attrs: nounwind uwtable
define void @BZ2_bzclose(ptr noundef %0) #0 {
  %2 = alloca ptr, align 8
  %3 = alloca i32, align 4
  %4 = alloca ptr, align 8
  store ptr %0, ptr %2, align 8
  %5 = load ptr, ptr %2, align 8
  %6 = icmp eq ptr %5, null
  br i1 %6, label %7, label %8

7:                                                ; preds = %1
  br label %36

8:                                                ; preds = %1
  %9 = load ptr, ptr %2, align 8
  %10 = getelementptr inbounds %struct.bzFile, ptr %9, i32 0, i32 0
  %11 = load ptr, ptr %10, align 8
  store ptr %11, ptr %4, align 8
  %12 = load ptr, ptr %2, align 8
  %13 = getelementptr inbounds %struct.bzFile, ptr %12, i32 0, i32 3
  %14 = load i8, ptr %13, align 4
  %15 = icmp ne i8 %14, 0
  br i1 %15, label %16, label %23

16:                                               ; preds = %8
  %17 = load ptr, ptr %2, align 8
  call void @BZ2_bzWriteClose(ptr noundef %3, ptr noundef %17, i32 noundef 0, ptr noundef null, ptr noundef null)
  %18 = load i32, ptr %3, align 4
  %19 = icmp ne i32 %18, 0
  br i1 %19, label %20, label %22

20:                                               ; preds = %16
  %21 = load ptr, ptr %2, align 8
  call void @BZ2_bzWriteClose(ptr noundef null, ptr noundef %21, i32 noundef 1, ptr noundef null, ptr noundef null)
  br label %22

22:                                               ; preds = %20, %16
  br label %25

23:                                               ; preds = %8
  %24 = load ptr, ptr %2, align 8
  call void @BZ2_bzReadClose(ptr noundef %3, ptr noundef %24)
  br label %25

25:                                               ; preds = %23, %22
  %26 = load ptr, ptr %4, align 8
  %27 = load ptr, ptr @stdin, align 8
  %28 = icmp ne ptr %26, %27
  br i1 %28, label %29, label %36

29:                                               ; preds = %25
  %30 = load ptr, ptr %4, align 8
  %31 = load ptr, ptr @stdout, align 8
  %32 = icmp ne ptr %30, %31
  br i1 %32, label %33, label %36

33:                                               ; preds = %29
  %34 = load ptr, ptr %4, align 8
  %35 = call i32 @fclose(ptr noundef %34)
  br label %36

36:                                               ; preds = %33, %29, %25, %7
  ret void
}