; Function Attrs: nounwind uwtable
define void @BZ2_bzclose(ptr noundef %0) local_unnamed_addr #4 {
  %2 = alloca i32, align 4
  %3 = icmp eq ptr %0, null
  br i1 %3, label %101, label %4

4:                                                ; preds = %1
  %5 = load ptr, ptr %0, align 8
  %6 = getelementptr inbounds nuw i8, ptr %0, i64 5012
  %7 = load i8, ptr %6, align 4
  %.not = icmp eq i8 %7, 0
  br i1 %.not, label %56, label %8

8:                                                ; preds = %4
  call void @BZ2_bzWriteClose64(ptr noundef nonnull %2, ptr noundef nonnull %0, i32 noundef 0, ptr noundef null, ptr noundef null, ptr noundef null, ptr noundef null)
  %9 = load i32, ptr %2, align 4
  %.not10 = icmp eq i32 %9, 0
  br i1 %.not10, label %BZ2_bzWriteClose64.exit, label %10

10:                                               ; preds = %8
  %11 = load i8, ptr %6, align 4
  %.not.i = icmp eq i8 %11, 0
  br i1 %.not.i, label %12, label %14

12:                                               ; preds = %10
  %13 = getelementptr inbounds nuw i8, ptr %0, i64 5096
  store i32 -1, ptr %13, align 8
  br label %BZ2_bzWriteClose64.exit

14:                                               ; preds = %10
  %15 = load ptr, ptr %0, align 8
  %16 = call i32 @ferror(ptr noundef %15) #22
  %.not90.i = icmp eq i32 %16, 0
  %17 = getelementptr inbounds nuw i8, ptr %0, i64 5096
  br i1 %.not90.i, label %19, label %18

18:                                               ; preds = %14
  store i32 -6, ptr %17, align 8
  br label %BZ2_bzWriteClose64.exit

19:                                               ; preds = %14
  store i32 0, ptr %17, align 8
  %20 = getelementptr inbounds nuw i8, ptr %0, i64 5064
  %21 = load ptr, ptr %20, align 8
  %22 = icmp eq ptr %21, null
  br i1 %22, label %BZ2_bzCompressEnd.exit.i, label %23

23:                                               ; preds = %19
  %24 = getelementptr inbounds nuw i8, ptr %0, i64 5016
  %25 = load ptr, ptr %21, align 8
  %.not.i106.i = icmp eq ptr %25, %24
  br i1 %.not.i106.i, label %26, label %BZ2_bzCompressEnd.exit.i

26:                                               ; preds = %23
  %27 = getelementptr inbounds nuw i8, ptr %21, i64 24
  %28 = load ptr, ptr %27, align 8
  %.not26.i.i13 = icmp eq ptr %28, null
  br i1 %.not26.i.i13, label %34, label %29

29:                                               ; preds = %26
  %30 = getelementptr inbounds nuw i8, ptr %0, i64 5080
  %31 = load ptr, ptr %30, align 8
  %32 = getelementptr inbounds nuw i8, ptr %0, i64 5088
  %33 = load ptr, ptr %32, align 8
  call void %31(ptr noundef %33, ptr noundef nonnull %28) #22
  br label %34

34:                                               ; preds = %29, %26
  %35 = getelementptr inbounds nuw i8, ptr %21, i64 32
  %36 = load ptr, ptr %35, align 8
  %.not27.i.i14 = icmp eq ptr %36, null
  br i1 %.not27.i.i14, label %42, label %37

37:                                               ; preds = %34
  %38 = getelementptr inbounds nuw i8, ptr %0, i64 5080
  %39 = load ptr, ptr %38, align 8
  %40 = getelementptr inbounds nuw i8, ptr %0, i64 5088
  %41 = load ptr, ptr %40, align 8
  call void %39(ptr noundef %41, ptr noundef nonnull %36) #22
  br label %42

42:                                               ; preds = %37, %34
  %43 = getelementptr inbounds nuw i8, ptr %21, i64 40
  %44 = load ptr, ptr %43, align 8
  %.not28.i.i15 = icmp eq ptr %44, null
  br i1 %.not28.i.i15, label %50, label %45

45:                                               ; preds = %42
  %46 = getelementptr inbounds nuw i8, ptr %0, i64 5080
  %47 = load ptr, ptr %46, align 8
  %48 = getelementptr inbounds nuw i8, ptr %0, i64 5088
  %49 = load ptr, ptr %48, align 8
  call void %47(ptr noundef %49, ptr noundef nonnull %44) #22
  br label %50

50:                                               ; preds = %45, %42
  %51 = getelementptr inbounds nuw i8, ptr %0, i64 5080
  %52 = load ptr, ptr %51, align 8
  %53 = getelementptr inbounds nuw i8, ptr %0, i64 5088
  %54 = load ptr, ptr %53, align 8
  %55 = load ptr, ptr %20, align 8
  call void %52(ptr noundef %54, ptr noundef %55) #22
  br label %BZ2_bzCompressEnd.exit.i

BZ2_bzCompressEnd.exit.i:                         ; preds = %50, %23, %19
  call void @free(ptr noundef nonnull %0) #22
  br label %BZ2_bzWriteClose64.exit

56:                                               ; preds = %4
  store i32 0, ptr %2, align 4
  %57 = getelementptr inbounds nuw i8, ptr %0, i64 5096
  store i32 0, ptr %57, align 8
  %58 = getelementptr inbounds nuw i8, ptr %0, i64 5100
  %59 = load i8, ptr %58, align 4
  %.not22.i = icmp eq i8 %59, 0
  br i1 %.not22.i, label %BZ2_bzReadClose.exit, label %60

60:                                               ; preds = %56
  %61 = getelementptr inbounds nuw i8, ptr %0, i64 5064
  %62 = load ptr, ptr %61, align 8
  %63 = icmp eq ptr %62, null
  br i1 %63, label %BZ2_bzReadClose.exit, label %64

64:                                               ; preds = %60
  %65 = getelementptr inbounds nuw i8, ptr %0, i64 5016
  %66 = load ptr, ptr %62, align 8
  %.not.i.i = icmp eq ptr %66, %65
  br i1 %.not.i.i, label %67, label %BZ2_bzReadClose.exit

67:                                               ; preds = %64
  %68 = getelementptr inbounds nuw i8, ptr %62, i64 3152
  %69 = load ptr, ptr %68, align 8
  %.not26.i.i = icmp eq ptr %69, null
  br i1 %.not26.i.i, label %75, label %70

70:                                               ; preds = %67
  %71 = getelementptr inbounds nuw i8, ptr %0, i64 5080
  %72 = load ptr, ptr %71, align 8
  %73 = getelementptr inbounds nuw i8, ptr %0, i64 5088
  %74 = load ptr, ptr %73, align 8
  tail call void %72(ptr noundef %74, ptr noundef nonnull %69) #22
  br label %75

75:                                               ; preds = %70, %67
  %76 = getelementptr inbounds nuw i8, ptr %62, i64 3160
  %77 = load ptr, ptr %76, align 8
  %.not27.i.i = icmp eq ptr %77, null
  br i1 %.not27.i.i, label %83, label %78

78:                                               ; preds = %75
  %79 = getelementptr inbounds nuw i8, ptr %0, i64 5080
  %80 = load ptr, ptr %79, align 8
  %81 = getelementptr inbounds nuw i8, ptr %0, i64 5088
  %82 = load ptr, ptr %81, align 8
  tail call void %80(ptr noundef %82, ptr noundef nonnull %77) #22
  br label %83

83:                                               ; preds = %78, %75
  %84 = getelementptr inbounds nuw i8, ptr %62, i64 3168
  %85 = load ptr, ptr %84, align 8
  %.not28.i.i = icmp eq ptr %85, null
  br i1 %.not28.i.i, label %91, label %86

86:                                               ; preds = %83
  %87 = getelementptr inbounds nuw i8, ptr %0, i64 5080
  %88 = load ptr, ptr %87, align 8
  %89 = getelementptr inbounds nuw i8, ptr %0, i64 5088
  %90 = load ptr, ptr %89, align 8
  tail call void %88(ptr noundef %90, ptr noundef nonnull %85) #22
  br label %91

91:                                               ; preds = %86, %83
  %92 = getelementptr inbounds nuw i8, ptr %0, i64 5080
  %93 = load ptr, ptr %92, align 8
  %94 = getelementptr inbounds nuw i8, ptr %0, i64 5088
  %95 = load ptr, ptr %94, align 8
  %96 = load ptr, ptr %61, align 8
  tail call void %93(ptr noundef %95, ptr noundef %96) #22
  br label %BZ2_bzReadClose.exit

BZ2_bzReadClose.exit:                             ; preds = %56, %60, %64, %91
  tail call void @free(ptr noundef nonnull %0) #22
  br label %BZ2_bzWriteClose64.exit

BZ2_bzWriteClose64.exit:                          ; preds = %BZ2_bzCompressEnd.exit.i, %18, %12, %8, %BZ2_bzReadClose.exit
  %97 = load ptr, ptr @stdin, align 8
  %.not11 = icmp eq ptr %5, %97
  %98 = load ptr, ptr @stdout, align 8
  %.not12 = icmp eq ptr %5, %98
  %or.cond = select i1 %.not11, i1 true, i1 %.not12
  br i1 %or.cond, label %101, label %99

99:                                               ; preds = %BZ2_bzWriteClose64.exit
  %100 = call i32 @fclose(ptr noundef %5)
  br label %101

101:                                              ; preds = %1, %99, %BZ2_bzWriteClose64.exit
  ret void
}